target datalayout = "e-m:e-p270:32:32-p271:32:32-p272:64:64-i64:64-i128:128-f80:128-n8:16:32:64-S128"
target triple = "x86_64-pc-linux-gnu"

%struct.Data = type { i32, ptr }
%class.JVMFlag = type { ptr, ptr, i32, i32 }

@.str.8 = private unnamed_addr constant [4 x i8] c"%*s\00", align 1
@.str.9 = private unnamed_addr constant [3 x i8] c"%s\00", align 1
@.str.33 = private unnamed_addr constant [2 x i8] c"{\00", align 1
@.str.34 = private unnamed_addr constant [2 x i8] c" \00", align 1
@.str.35 = private unnamed_addr constant [2 x i8] c"}\00", align 1

; Function Attrs: mustprogress nounwind uwtable
define hidden void @_ZNK7JVMFlag10print_kindEP12outputStreamj(ptr noundef nonnull align 8 dereferenceable(24) %0, ptr noundef %1, i32 noundef %2) #1 align 2 {
  %4 = alloca ptr, align 8
  %5 = alloca ptr, align 8
  %6 = alloca i32, align 4
  %7 = alloca [12 x %struct.Data], align 16
  %8 = alloca i8, align 1
  %9 = alloca i64, align 8
  %10 = alloca i64, align 8
  %11 = alloca [64 x i8], align 16
  %12 = alloca i32, align 4
  %13 = alloca %struct.Data, align 8
  %14 = alloca i64, align 8
  store ptr %0, ptr %4, align 8
  store ptr %1, ptr %5, align 8
  store i32 %2, ptr %6, align 4
  %15 = load ptr, ptr %4, align 8
  call void @llvm.memcpy.p0.p0.i64(ptr align 16 %7, ptr align 16 @__const._ZNK7JVMFlag10print_kindEP12outputStreamj.data, i64 192, i1 false)
  %16 = getelementptr inbounds %class.JVMFlag, ptr %15, i32 0, i32 2
  %17 = load i32, ptr %16, align 8
  %18 = and i32 %17, -131088
  %19 = icmp ne i32 %18, 0
  br i1 %19, label %20, label %84

20:                                               ; preds = %3
  store i8 1, ptr %8, align 1
  store i64 64, ptr %9, align 8
  store i64 0, ptr %10, align 8
  %21 = getelementptr inbounds [64 x i8], ptr %11, i64 0, i64 0
  %22 = call i32 (ptr, i64, ptr, ...) @jio_snprintf(ptr noundef %21, i64 noundef 64, ptr noundef @.str.33)
  %23 = load i64, ptr %10, align 8
  %24 = add i64 %23, 1
  store i64 %24, ptr %10, align 8
  store i32 0, ptr %12, align 4
  br label %25

25:                                               ; preds = %71, %20
  %26 = load i32, ptr %12, align 4
  %27 = sext i32 %26 to i64
  %28 = getelementptr inbounds [12 x %struct.Data], ptr %7, i64 0, i64 %27
  %29 = getelementptr inbounds %struct.Data, ptr %28, i32 0, i32 0
  %30 = load i32, ptr %29, align 16
  %31 = icmp ne i32 %30, -1
  br i1 %31, label %32, label %74

32:                                               ; preds = %25
  %33 = load i32, ptr %12, align 4
  %34 = sext i32 %33 to i64
  %35 = getelementptr inbounds [12 x %struct.Data], ptr %7, i64 0, i64 %34
  call void @llvm.memcpy.p0.p0.i64(ptr align 8 %13, ptr align 16 %35, i64 16, i1 false)
  %36 = getelementptr inbounds %class.JVMFlag, ptr %15, i32 0, i32 2
  %37 = load i32, ptr %36, align 8
  %38 = getelementptr inbounds %struct.Data, ptr %13, i32 0, i32 0
  %39 = load i32, ptr %38, align 8
  %40 = and i32 %37, %39
  %41 = icmp ne i32 %40, 0
  br i1 %41, label %42, label %70

42:                                               ; preds = %32
  %43 = load i8, ptr %8, align 1
  %44 = trunc i8 %43 to i1
  br i1 %44, label %45, label %46

45:                                               ; preds = %42
  store i8 0, ptr %8, align 1
  br label %55

46:                                               ; preds = %42
  %47 = getelementptr inbounds [64 x i8], ptr %11, i64 0, i64 0
  %48 = load i64, ptr %10, align 8
  %49 = getelementptr inbounds i8, ptr %47, i64 %48
  %50 = load i64, ptr %10, align 8
  %51 = sub i64 64, %50
  %52 = call i32 (ptr, i64, ptr, ...) @jio_snprintf(ptr noundef %49, i64 noundef %51, ptr noundef @.str.34)
  %53 = load i64, ptr %10, align 8
  %54 = add i64 %53, 1
  store i64 %54, ptr %10, align 8
  br label %55

55:                                               ; preds = %46, %45
  %56 = getelementptr inbounds %struct.Data, ptr %13, i32 0, i32 1
  %57 = load ptr, ptr %56, align 8
  %58 = call i64 @strlen(ptr noundef %57) #7
  store i64 %58, ptr %14, align 8
  %59 = getelementptr inbounds [64 x i8], ptr %11, i64 0, i64 0
  %60 = load i64, ptr %10, align 8
  %61 = getelementptr inbounds i8, ptr %59, i64 %60
  %62 = load i64, ptr %10, align 8
  %63 = sub i64 64, %62
  %64 = getelementptr inbounds %struct.Data, ptr %13, i32 0, i32 1
  %65 = load ptr, ptr %64, align 8
  %66 = call i32 (ptr, i64, ptr, ...) @jio_snprintf(ptr noundef %61, i64 noundef %63, ptr noundef @.str.9, ptr noundef %65)
  %67 = load i64, ptr %14, align 8
  %68 = load i64, ptr %10, align 8
  %69 = add i64 %68, %67
  store i64 %69, ptr %10, align 8
  br label %70

70:                                               ; preds = %55, %32
  br label %71

71:                                               ; preds = %70
  %72 = load i32, ptr %12, align 4
  %73 = add nsw i32 %72, 1
  store i32 %73, ptr %12, align 4
  br label %25, !llvm.loop !8

74:                                               ; preds = %25
  %75 = getelementptr inbounds [64 x i8], ptr %11, i64 0, i64 0
  %76 = load i64, ptr %10, align 8
  %77 = getelementptr inbounds i8, ptr %75, i64 %76
  %78 = load i64, ptr %10, align 8
  %79 = sub i64 64, %78
  %80 = call i32 (ptr, i64, ptr, ...) @jio_snprintf(ptr noundef %77, i64 noundef %79, ptr noundef @.str.35)
  %81 = load ptr, ptr %5, align 8
  %82 = load i32, ptr %6, align 4
  %83 = getelementptr inbounds [64 x i8], ptr %11, i64 0, i64 0
  call void (ptr, ptr, ...) @_ZN12outputStream5printEPKcz(ptr noundef nonnull align 8 dereferenceable(56) %81, ptr noundef @.str.8, i32 noundef %82, ptr noundef %83)
  br label %84

84:                                               ; preds = %74, %3
  ret void
}