; Function Attrs: mustprogress nounwind uwtable
define hidden void @_ZNK7JVMFlag10print_kindEP12outputStreamj(ptr nocapture noundef nonnull readonly align 8 dereferenceable(24) %0, ptr noundef %1, i32 noundef %2) local_unnamed_addr #5 align 2 {
  %4 = alloca [64 x i8], align 16
  %5 = getelementptr inbounds i8, ptr %0, i64 16
  %6 = load i32, ptr %5, align 8
  %7 = and i32 %6, -131088
  %.not = icmp eq i32 %7, 0
  br i1 %.not, label %34, label %8

8:                                                ; preds = %3
  %9 = call i32 (ptr, i64, ptr, ...) @jio_snprintf(ptr noundef nonnull %4, i64 noundef 64, ptr noundef nonnull @.str.33) #13
  br label %10

10:                                               ; preds = %8, %27
  %indvars.iv = phi i64 [ 0, %8 ], [ %indvars.iv.next, %27 ]
  %11 = phi i32 [ 16384, %8 ], [ %29, %27 ]
  %12 = phi ptr [ @__const._ZNK7JVMFlag10print_kindEP12outputStreamj.data, %8 ], [ %28, %27 ]
  %.027 = phi i1 [ true, %8 ], [ %.2, %27 ]
  %.01826 = phi i64 [ 1, %8 ], [ %.220, %27 ]
  %.sroa.21.0..sroa_idx = getelementptr inbounds i8, ptr %12, i64 8
  %.sroa.21.0.copyload = load ptr, ptr %.sroa.21.0..sroa_idx, align 8
  %13 = load i32, ptr %5, align 8
  %14 = and i32 %13, %11
  %.not24 = icmp eq i32 %14, 0
  br i1 %.not24, label %27, label %15

15:                                               ; preds = %10
  br i1 %.027, label %21, label %16

16:                                               ; preds = %15
  %17 = getelementptr inbounds i8, ptr %4, i64 %.01826
  %18 = sub i64 64, %.01826
  %19 = call i32 (ptr, i64, ptr, ...) @jio_snprintf(ptr noundef nonnull %17, i64 noundef %18, ptr noundef nonnull @.str.34) #13
  %20 = add i64 %.01826, 1
  br label %21

21:                                               ; preds = %15, %16
  %.119 = phi i64 [ %20, %16 ], [ %.01826, %15 ]
  %22 = call i64 @strlen(ptr noundef nonnull dereferenceable(1) %.sroa.21.0.copyload) #12
  %23 = getelementptr inbounds i8, ptr %4, i64 %.119
  %24 = sub i64 64, %.119
  %25 = call i32 (ptr, i64, ptr, ...) @jio_snprintf(ptr noundef nonnull %23, i64 noundef %24, ptr noundef nonnull @.str.9, ptr noundef %.sroa.21.0.copyload) #13
  %26 = add i64 %22, %.119
  br label %27

27:                                               ; preds = %10, %21
  %.220 = phi i64 [ %26, %21 ], [ %.01826, %10 ]
  %.2 = phi i1 [ false, %21 ], [ %.027, %10 ]
  %indvars.iv.next = add nuw nsw i64 %indvars.iv, 1
  %28 = getelementptr inbounds [12 x %struct.Data], ptr @__const._ZNK7JVMFlag10print_kindEP12outputStreamj.data, i64 0, i64 %indvars.iv.next
  %29 = load i32, ptr %28, align 16
  %exitcond = icmp eq i64 %indvars.iv.next, 11
  br i1 %exitcond, label %30, label %10, !llvm.loop !8

30:                                               ; preds = %27
  %31 = getelementptr inbounds i8, ptr %4, i64 %.220
  %32 = sub i64 64, %.220
  %33 = call i32 (ptr, i64, ptr, ...) @jio_snprintf(ptr noundef nonnull %31, i64 noundef %32, ptr noundef nonnull @.str.35) #13
  call void (ptr, ptr, ...) @_ZN12outputStream5printEPKcz(ptr noundef nonnull align 8 dereferenceable(56) %1, ptr noundef nonnull @.str.8, i32 noundef %2, ptr noundef nonnull %4) #13
  br label %34

34:                                               ; preds = %30, %3
  ret void
}